; Function Attrs: nounwind uwtable
define ptr @l_Lean_Compiler_LCNF_normLetDecl___rarg(i8 noundef zeroext %0, ptr noundef %1, ptr noundef %2, ptr noundef %3, ptr noundef %4) local_unnamed_addr #2 {
  %6 = getelementptr inbounds nuw i8, ptr %2, i64 16
  %7 = load ptr, ptr %6, align 8, !tbaa !4
  %8 = ptrtoint ptr %7 to i64
  %9 = and i64 %8, 1
  %.not = icmp eq i64 %9, 0
  br i1 %.not, label %10, label %lean_inc.exit38

10:                                               ; preds = %5
  %.val.i = load i32, ptr %7, align 4, !tbaa !8
  %11 = icmp sgt i32 %.val.i, 0
  br i1 %11, label %12, label %14, !prof !11

12:                                               ; preds = %10
  %13 = add nuw i32 %.val.i, 1
  store i32 %13, ptr %7, align 4, !tbaa !8
  br label %lean_inc.exit38

14:                                               ; preds = %10
  %.not.i = icmp eq i32 %.val.i, 0
  br i1 %.not.i, label %lean_inc.exit38, label %15

15:                                               ; preds = %14
  tail call void @lean_inc_ref_cold(ptr noundef nonnull %7) #6
  br label %lean_inc.exit38

lean_inc.exit38:                                  ; preds = %15, %14, %12, %5
  %16 = getelementptr inbounds nuw i8, ptr %4, i64 24
  %17 = load ptr, ptr %16, align 8, !tbaa !4
  %18 = ptrtoint ptr %17 to i64
  %19 = and i64 %18, 1
  %.not55 = icmp eq i64 %19, 0
  br i1 %.not55, label %20, label %lean_inc.exit37

20:                                               ; preds = %lean_inc.exit38
  %.val.i39 = load i32, ptr %17, align 4, !tbaa !8
  %21 = icmp sgt i32 %.val.i39, 0
  br i1 %21, label %22, label %24, !prof !11

22:                                               ; preds = %20
  %23 = add nuw i32 %.val.i39, 1
  store i32 %23, ptr %17, align 4, !tbaa !8
  br label %lean_inc.exit37

24:                                               ; preds = %20
  %.not.i40 = icmp eq i32 %.val.i39, 0
  br i1 %.not.i40, label %lean_inc.exit37, label %25

25:                                               ; preds = %24
  tail call void @lean_inc_ref_cold(ptr noundef nonnull %17) #6
  br label %lean_inc.exit37

lean_inc.exit37:                                  ; preds = %25, %24, %22, %lean_inc.exit38
  %26 = zext i8 %0 to i64
  %27 = shl nuw nsw i64 %26, 1
  %28 = or disjoint i64 %27, 1
  %29 = inttoptr i64 %28 to ptr
  %30 = ptrtoint ptr %2 to i64
  %31 = and i64 %30, 1
  %.not56 = icmp eq i64 %31, 0
  br i1 %.not56, label %32, label %lean_inc.exit36

32:                                               ; preds = %lean_inc.exit37
  %.val.i42 = load i32, ptr %2, align 4, !tbaa !8
  %33 = icmp sgt i32 %.val.i42, 0
  br i1 %33, label %34, label %36, !prof !11

34:                                               ; preds = %32
  %35 = add nuw i32 %.val.i42, 1
  store i32 %35, ptr %2, align 4, !tbaa !8
  br label %lean_inc.exit36

36:                                               ; preds = %32
  %.not.i43 = icmp eq i32 %.val.i42, 0
  br i1 %.not.i43, label %lean_inc.exit36, label %37

37:                                               ; preds = %36
  tail call void @lean_inc_ref_cold(ptr noundef nonnull %2) #6
  br label %lean_inc.exit36

lean_inc.exit36:                                  ; preds = %37, %36, %34, %lean_inc.exit37
  tail call void @lean_inc_heartbeat() #6
  %38 = tail call noalias ptr @mi_malloc_small(i64 noundef 48) #6
  %39 = icmp eq ptr %38, null
  br i1 %39, label %40, label %lean_alloc_closure.exit

40:                                               ; preds = %lean_inc.exit36
  tail call void @lean_internal_panic_out_of_memory() #7
  unreachable

lean_alloc_closure.exit:                          ; preds = %lean_inc.exit36
  %41 = getelementptr inbounds nuw i8, ptr %38, i64 4
  store i32 1, ptr %38, align 4, !tbaa !8
  store i32 -184549328, ptr %41, align 4
  %42 = getelementptr inbounds nuw i8, ptr %38, i64 8
  store ptr @l_Lean_Compiler_LCNF_normExpr___rarg___lambda__1___boxed, ptr %42, align 8, !tbaa !4
  %43 = getelementptr inbounds nuw i8, ptr %38, i64 16
  store i16 4, ptr %43, align 8, !tbaa !12
  %44 = getelementptr inbounds nuw i8, ptr %38, i64 18
  store i16 3, ptr %44, align 2, !tbaa !12
  %45 = getelementptr inbounds nuw i8, ptr %38, i64 24
  store ptr %2, ptr %45, align 8, !tbaa !4
  %46 = getelementptr inbounds nuw i8, ptr %38, i64 32
  store ptr %29, ptr %46, align 8, !tbaa !4
  %47 = getelementptr inbounds nuw i8, ptr %38, i64 40
  store ptr %17, ptr %47, align 8, !tbaa !4
  br i1 %.not, label %48, label %lean_inc.exit35

48:                                               ; preds = %lean_alloc_closure.exit
  %.val.i45 = load i32, ptr %7, align 4, !tbaa !8
  %49 = icmp sgt i32 %.val.i45, 0
  br i1 %49, label %50, label %52, !prof !11

50:                                               ; preds = %48
  %51 = add nuw i32 %.val.i45, 1
  store i32 %51, ptr %7, align 4, !tbaa !8
  br label %lean_inc.exit35

52:                                               ; preds = %48
  %.not.i46 = icmp eq i32 %.val.i45, 0
  br i1 %.not.i46, label %lean_inc.exit35, label %53

53:                                               ; preds = %52
  tail call void @lean_inc_ref_cold(ptr noundef nonnull %7) #6
  br label %lean_inc.exit35

lean_inc.exit35:                                  ; preds = %53, %52, %50, %lean_alloc_closure.exit
  %54 = ptrtoint ptr %3 to i64
  %55 = and i64 %54, 1
  %.not57 = icmp eq i64 %55, 0
  br i1 %.not57, label %56, label %lean_inc.exit34

56:                                               ; preds = %lean_inc.exit35
  %.val.i48 = load i32, ptr %3, align 4, !tbaa !8
  %57 = icmp sgt i32 %.val.i48, 0
  br i1 %57, label %58, label %60, !prof !11

58:                                               ; preds = %56
  %59 = add nuw i32 %.val.i48, 1
  store i32 %59, ptr %3, align 4, !tbaa !8
  br label %lean_inc.exit34

60:                                               ; preds = %56
  %.not.i49 = icmp eq i32 %.val.i48, 0
  br i1 %.not.i49, label %lean_inc.exit34, label %61

61:                                               ; preds = %60
  tail call void @lean_inc_ref_cold(ptr noundef nonnull %3) #6
  br label %lean_inc.exit34

lean_inc.exit34:                                  ; preds = %61, %60, %58, %lean_inc.exit35
  %62 = tail call ptr @lean_apply_4(ptr noundef %7, ptr noundef nonnull inttoptr (i64 1 to ptr), ptr noundef nonnull inttoptr (i64 1 to ptr), ptr noundef %3, ptr noundef nonnull %38) #6
  br i1 %.not, label %63, label %lean_inc.exit

63:                                               ; preds = %lean_inc.exit34
  %.val.i51 = load i32, ptr %7, align 4, !tbaa !8
  %64 = icmp sgt i32 %.val.i51, 0
  br i1 %64, label %65, label %67, !prof !11

65:                                               ; preds = %63
  %66 = add nuw i32 %.val.i51, 1
  store i32 %66, ptr %7, align 4, !tbaa !8
  br label %lean_inc.exit

67:                                               ; preds = %63
  %.not.i52 = icmp eq i32 %.val.i51, 0
  br i1 %.not.i52, label %lean_inc.exit, label %68

68:                                               ; preds = %67
  tail call void @lean_inc_ref_cold(ptr noundef nonnull %7) #6
  br label %lean_inc.exit

lean_inc.exit:                                    ; preds = %68, %67, %65, %lean_inc.exit34
  tail call void @lean_inc_heartbeat() #6
  %69 = tail call noalias ptr @mi_malloc_small(i64 noundef 72) #6
  %70 = icmp eq ptr %69, null
  br i1 %70, label %71, label %lean_alloc_closure.exit54

71:                                               ; preds = %lean_inc.exit
  tail call void @lean_internal_panic_out_of_memory() #7
  unreachable

lean_alloc_closure.exit54:                        ; preds = %lean_inc.exit
  %72 = getelementptr inbounds nuw i8, ptr %69, i64 4
  store i32 1, ptr %69, align 4, !tbaa !8
  store i32 -184549304, ptr %72, align 4
  %73 = getelementptr inbounds nuw i8, ptr %69, i64 8
  store ptr @l_Lean_Compiler_LCNF_normLetDecl___rarg___lambda__2___boxed, ptr %73, align 8, !tbaa !4
  %74 = getelementptr inbounds nuw i8, ptr %69, i64 16
  store i16 7, ptr %74, align 8, !tbaa !12
  %75 = getelementptr inbounds nuw i8, ptr %69, i64 18
  store i16 6, ptr %75, align 2, !tbaa !12
  %76 = getelementptr inbounds nuw i8, ptr %69, i64 24
  store ptr %4, ptr %76, align 8, !tbaa !4
  %77 = getelementptr inbounds nuw i8, ptr %69, i64 32
  store ptr %2, ptr %77, align 8, !tbaa !4
  %78 = getelementptr inbounds nuw i8, ptr %69, i64 40
  store ptr %29, ptr %78, align 8, !tbaa !4
  %79 = getelementptr inbounds nuw i8, ptr %69, i64 48
  store ptr %7, ptr %79, align 8, !tbaa !4
  %80 = getelementptr inbounds nuw i8, ptr %69, i64 56
  store ptr %3, ptr %80, align 8, !tbaa !4
  %81 = getelementptr inbounds nuw i8, ptr %69, i64 64
  store ptr %1, ptr %81, align 8, !tbaa !4
  %82 = tail call ptr @lean_apply_4(ptr noundef %7, ptr noundef nonnull inttoptr (i64 1 to ptr), ptr noundef nonnull inttoptr (i64 1 to ptr), ptr noundef %62, ptr noundef nonnull %69) #6
  ret ptr %82
}